; Function Attrs: nounwind uwtable
define hidden i32 @psa_open_key(i32 noundef %0, ptr noundef writeonly captures(none) initializes((0, 4)) %1) local_unnamed_addr #4 {
  %3 = alloca ptr, align 8
  call void @llvm.lifetime.start.p0(i64 8, ptr nonnull %3) #12
  %4 = call i32 @psa_get_and_lock_key_slot(i32 noundef %0, ptr noundef nonnull %3)
  %.not = icmp eq i32 %4, 0
  br i1 %.not, label %7, label %5

5:                                                ; preds = %2
  store i32 0, ptr %1, align 4, !tbaa !24
  %6 = icmp eq i32 %4, -136
  %spec.store.select = select i1 %6, i32 -140, i32 %4
  br label %psa_unregister_read_under_mutex.exit

7:                                                ; preds = %2
  store i32 %0, ptr %1, align 4, !tbaa !24
  %8 = load ptr, ptr %3, align 8, !tbaa !3
  %9 = icmp eq ptr %8, null
  br i1 %9, label %psa_unregister_read_under_mutex.exit, label %10

10:                                               ; preds = %7
  %11 = getelementptr inbounds nuw i8, ptr %8, i64 24
  %12 = load i32, ptr %11, align 8, !tbaa !9
  %13 = and i32 %12, -2
  %switch.i.i = icmp eq i32 %13, 2
  br i1 %switch.i.i, label %14, label %psa_unregister_read_under_mutex.exit

14:                                               ; preds = %10
  %15 = icmp eq i32 %12, 3
  %16 = getelementptr i8, ptr %8, i64 32
  %17 = load i64, ptr %16, align 8, !tbaa !18
  %18 = icmp eq i64 %17, 1
  %or.cond.i.i = select i1 %15, i1 %18, i1 false
  br i1 %or.cond.i.i, label %19, label %._crit_edge.i.i

19:                                               ; preds = %14
  %20 = tail call i32 @psa_wipe_key_slot(ptr noundef nonnull %8) #12
  br label %psa_unregister_read_under_mutex.exit

._crit_edge.i.i:                                  ; preds = %14
  %.not.i.i = icmp eq i64 %17, 0
  br i1 %.not.i.i, label %psa_unregister_read_under_mutex.exit, label %21

21:                                               ; preds = %._crit_edge.i.i
  %22 = add i64 %17, -1
  store i64 %22, ptr %16, align 8, !tbaa !18
  br label %psa_unregister_read_under_mutex.exit

psa_unregister_read_under_mutex.exit:             ; preds = %21, %._crit_edge.i.i, %19, %10, %7, %5
  %.0 = phi i32 [ %spec.store.select, %5 ], [ %20, %19 ], [ 0, %21 ], [ 0, %7 ], [ -151, %10 ], [ -151, %._crit_edge.i.i ]
  call void @llvm.lifetime.end.p0(i64 8, ptr nonnull %3) #12
  ret i32 %.0
}